	.file	"main.cpp"
	.text
	.globl	number1
	.bss
	.align 4
number1:
	.space 4
	.globl	number2
	.align 4
number2:
	.space 4
	.globl	result
	.align 4
result:
	.space 4
	.section .rdata,"dr"
.LC0:
	.ascii " + \0"
.LC1:
	.ascii " = \0"
.LC2:
	.ascii "\12\0"
	.text
	.globl	_Z8plusdrawii
	.def	_Z8plusdrawii;	.scl	2;	.type	32;	.endef
	.seh_proc	_Z8plusdrawii
_Z8plusdrawii:
.LFB7743:
	pushq	%rbp
	.seh_pushreg	%rbp
	movq	%rsp, %rbp
	.seh_setframe	%rbp, 0
	subq	$32, %rsp
	.seh_stackalloc	32
	.seh_endprologue
	movl	%ecx, 16(%rbp)
	movl	%edx, 24(%rbp)
	movl	$90, %ecx
	movq	__imp_Sleep(%rip), %rax
	call	*%rax
	movl	$7, %edx
	movl	$555, %ecx
	movq	__imp_Beep(%rip), %rax
	call	*%rax
	movl	16(%rbp), %edx
	movl	24(%rbp), %eax
	addl	%edx, %eax
	movl	%eax, result(%rip)
	movl	16(%rbp), %eax
	movl	%eax, %edx
	movq	.refptr._ZSt4cout(%rip), %rax
	movq	%rax, %rcx
	call	_ZNSolsEi
	movq	%rax, %rcx
	leaq	.LC0(%rip), %rax
	movq	%rax, %rdx
	call	_ZStlsISt11char_traitsIcEERSt13basic_ostreamIcT_ES5_PKc
	movq	%rax, %rcx
	movl	24(%rbp), %eax
	movl	%eax, %edx
	call	_ZNSolsEi
	movq	%rax, %rcx
	leaq	.LC1(%rip), %rax
	movq	%rax, %rdx
	call	_ZStlsISt11char_traitsIcEERSt13basic_ostreamIcT_ES5_PKc
	movq	%rax, %rcx
	movl	result(%rip), %eax
	movl	%eax, %edx
	call	_ZNSolsEi
	movq	%rax, %rcx
	leaq	.LC2(%rip), %rax
	movq	%rax, %rdx
	call	_ZStlsISt11char_traitsIcEERSt13basic_ostreamIcT_ES5_PKc
	nop
	addq	$32, %rsp
	popq	%rbp
	ret
	.seh_endproc
	.section .rdata,"dr"
.LC3:
	.ascii " - \0"
	.text
	.globl	_Z7mindrawii
	.def	_Z7mindrawii;	.scl	2;	.type	32;	.endef
	.seh_proc	_Z7mindrawii
_Z7mindrawii:
.LFB7744:
	pushq	%rbp
	.seh_pushreg	%rbp
	movq	%rsp, %rbp
	.seh_setframe	%rbp, 0
	subq	$32, %rsp
	.seh_stackalloc	32
	.seh_endprologue
	movl	%ecx, 16(%rbp)
	movl	%edx, 24(%rbp)
	movl	$90, %ecx
	movq	__imp_Sleep(%rip), %rax
	call	*%rax
	movl	$7, %edx
	movl	$555, %ecx
	movq	__imp_Beep(%rip), %rax
	call	*%rax
	movl	16(%rbp), %eax
	subl	24(%rbp), %eax
	movl	%eax, result(%rip)
	movl	16(%rbp), %eax
	movl	%eax, %edx
	movq	.refptr._ZSt4cout(%rip), %rax
	movq	%rax, %rcx
	call	_ZNSolsEi
	movq	%rax, %rcx
	leaq	.LC3(%rip), %rax
	movq	%rax, %rdx
	call	_ZStlsISt11char_traitsIcEERSt13basic_ostreamIcT_ES5_PKc
	movq	%rax, %rcx
	movl	24(%rbp), %eax
	movl	%eax, %edx
	call	_ZNSolsEi
	movq	%rax, %rcx
	leaq	.LC1(%rip), %rax
	movq	%rax, %rdx
	call	_ZStlsISt11char_traitsIcEERSt13basic_ostreamIcT_ES5_PKc
	movq	%rax, %rcx
	movl	result(%rip), %eax
	movl	%eax, %edx
	call	_ZNSolsEi
	movq	%rax, %rcx
	leaq	.LC2(%rip), %rax
	movq	%rax, %rdx
	call	_ZStlsISt11char_traitsIcEERSt13basic_ostreamIcT_ES5_PKc
	nop
	addq	$32, %rsp
	popq	%rbp
	ret
	.seh_endproc
	.section .rdata,"dr"
.LC4:
	.ascii " X \0"
	.text
	.globl	_Z9multidrawii
	.def	_Z9multidrawii;	.scl	2;	.type	32;	.endef
	.seh_proc	_Z9multidrawii
_Z9multidrawii:
.LFB7745:
	pushq	%rbp
	.seh_pushreg	%rbp
	movq	%rsp, %rbp
	.seh_setframe	%rbp, 0
	subq	$32, %rsp
	.seh_stackalloc	32
	.seh_endprologue
	movl	%ecx, 16(%rbp)
	movl	%edx, 24(%rbp)
	movl	$90, %ecx
	movq	__imp_Sleep(%rip), %rax
	call	*%rax
	movl	$7, %edx
	movl	$555, %ecx
	movq	__imp_Beep(%rip), %rax
	call	*%rax
	movl	16(%rbp), %eax
	imull	24(%rbp), %eax
	movl	%eax, result(%rip)
	movl	16(%rbp), %eax
	movl	%eax, %edx
	movq	.refptr._ZSt4cout(%rip), %rax
	movq	%rax, %rcx
	call	_ZNSolsEi
	movq	%rax, %rcx
	leaq	.LC4(%rip), %rax
	movq	%rax, %rdx
	call	_ZStlsISt11char_traitsIcEERSt13basic_ostreamIcT_ES5_PKc
	movq	%rax, %rcx
	movl	24(%rbp), %eax
	movl	%eax, %edx
	call	_ZNSolsEi
	movq	%rax, %rcx
	leaq	.LC1(%rip), %rax
	movq	%rax, %rdx
	call	_ZStlsISt11char_traitsIcEERSt13basic_ostreamIcT_ES5_PKc
	movq	%rax, %rcx
	movl	result(%rip), %eax
	movl	%eax, %edx
	call	_ZNSolsEi
	movq	%rax, %rcx
	leaq	.LC2(%rip), %rax
	movq	%rax, %rdx
	call	_ZStlsISt11char_traitsIcEERSt13basic_ostreamIcT_ES5_PKc
	nop
	addq	$32, %rsp
	popq	%rbp
	ret
	.seh_endproc
	.section .rdata,"dr"
.LC5:
	.ascii " : \0"
	.text
	.globl	_Z9sharedrawii
	.def	_Z9sharedrawii;	.scl	2;	.type	32;	.endef
	.seh_proc	_Z9sharedrawii
_Z9sharedrawii:
.LFB7746:
	pushq	%rbp
	.seh_pushreg	%rbp
	movq	%rsp, %rbp
	.seh_setframe	%rbp, 0
	subq	$32, %rsp
	.seh_stackalloc	32
	.seh_endprologue
	movl	%ecx, 16(%rbp)
	movl	%edx, 24(%rbp)
	movl	$90, %ecx
	movq	__imp_Sleep(%rip), %rax
	call	*%rax
	movl	$7, %edx
	movl	$555, %ecx
	movq	__imp_Beep(%rip), %rax
	call	*%rax
	movl	16(%rbp), %eax
	cltd
	idivl	24(%rbp)
	movl	%eax, result(%rip)
	movl	16(%rbp), %eax
	movl	%eax, %edx
	movq	.refptr._ZSt4cout(%rip), %rax
	movq	%rax, %rcx
	call	_ZNSolsEi
	movq	%rax, %rcx
	leaq	.LC5(%rip), %rax
	movq	%rax, %rdx
	call	_ZStlsISt11char_traitsIcEERSt13basic_ostreamIcT_ES5_PKc
	movq	%rax, %rcx
	movl	24(%rbp), %eax
	movl	%eax, %edx
	call	_ZNSolsEi
	movq	%rax, %rcx
	leaq	.LC1(%rip), %rax
	movq	%rax, %rdx
	call	_ZStlsISt11char_traitsIcEERSt13basic_ostreamIcT_ES5_PKc
	movq	%rax, %rcx
	movl	result(%rip), %eax
	movl	%eax, %edx
	call	_ZNSolsEi
	movq	%rax, %rcx
	leaq	.LC2(%rip), %rax
	movq	%rax, %rdx
	call	_ZStlsISt11char_traitsIcEERSt13basic_ostreamIcT_ES5_PKc
	nop
	addq	$32, %rsp
	popq	%rbp
	ret
	.seh_endproc
	.def	__main;	.scl	2;	.type	32;	.endef
	.section .rdata,"dr"
.LC6:
	.ascii "cls\0"
.LC7:
	.ascii "All Math Result\0"
	.text
	.globl	main
	.def	main;	.scl	2;	.type	32;	.endef
	.seh_proc	main
main:
.LFB7747:
	pushq	%rbp
	.seh_pushreg	%rbp
	pushq	%rbx
	.seh_pushreg	%rbx
	subq	$88, %rsp
	.seh_stackalloc	88
	leaq	80(%rsp), %rbp
	.seh_setframe	%rbp, 80
	.seh_endprologue
	call	__main
	leaq	-48(%rbp), %rax
	movq	%rax, %rcx
	call	_ZNSt7__cxx1112basic_stringIcSt11char_traitsIcESaIcEEC1Ev
	movl	$20, -4(%rbp)
	movl	$10, -8(%rbp)
	leaq	.LC6(%rip), %rax
	movq	%rax, %rcx
.LEHB0:
	call	system
	leaq	.LC7(%rip), %rax
	movq	%rax, %rdx
	movq	.refptr._ZSt4cout(%rip), %rax
	movq	%rax, %rcx
	call	_ZStlsISt11char_traitsIcEERSt13basic_ostreamIcT_ES5_PKc
	movq	%rax, %rcx
	leaq	.LC2(%rip), %rax
	movq	%rax, %rdx
	call	_ZStlsISt11char_traitsIcEERSt13basic_ostreamIcT_ES5_PKc
	movl	-8(%rbp), %edx
	movl	-4(%rbp), %eax
	movl	%eax, %ecx
	call	_Z8plusdrawii
	movl	-8(%rbp), %edx
	movl	-4(%rbp), %eax
	movl	%eax, %ecx
	call	_Z7mindrawii
	movl	-8(%rbp), %edx
	movl	-4(%rbp), %eax
	movl	%eax, %ecx
	call	_Z9multidrawii
	movl	-8(%rbp), %edx
	movl	-4(%rbp), %eax
	movl	%eax, %ecx
	call	_Z9sharedrawii
	leaq	-48(%rbp), %rax
	movq	%rax, %rdx
	movq	.refptr._ZSt3cin(%rip), %rax
	movq	%rax, %rcx
	call	_ZStrsIcSt11char_traitsIcESaIcEERSt13basic_istreamIT_T0_ES7_RNSt7__cxx1112basic_stringIS4_S5_T1_EE
.LEHE0:
	movl	$0, %ebx
	leaq	-48(%rbp), %rax
	movq	%rax, %rcx
	call	_ZNSt7__cxx1112basic_stringIcSt11char_traitsIcESaIcEED1Ev
	movl	%ebx, %eax
	jmp	.L9
.L8:
	movq	%rax, %rbx
	leaq	-48(%rbp), %rax
	movq	%rax, %rcx
	call	_ZNSt7__cxx1112basic_stringIcSt11char_traitsIcESaIcEED1Ev
	movq	%rbx, %rax
	movq	%rax, %rcx
.LEHB1:
	call	_Unwind_Resume
.LEHE1:
.L9:
	addq	$88, %rsp
	popq	%rbx
	popq	%rbp
	ret
	.def	__gxx_personality_seh0;	.scl	2;	.type	32;	.endef
	.seh_handler	__gxx_personality_seh0, @unwind, @except
	.seh_handlerdata
.LLSDA7747:
	.byte	0xff
	.byte	0xff
	.byte	0x1
	.uleb128 .LLSDACSE7747-.LLSDACSB7747
.LLSDACSB7747:
	.uleb128 .LEHB0-.LFB7747
	.uleb128 .LEHE0-.LEHB0
	.uleb128 .L8-.LFB7747
	.uleb128 0
	.uleb128 .LEHB1-.LFB7747
	.uleb128 .LEHE1-.LEHB1
	.uleb128 0
	.uleb128 0
.LLSDACSE7747:
	.text
	.seh_endproc
	.section .rdata,"dr"
_ZNSt8__detail30__integer_to_chars_is_unsignedIjEE:
	.byte	1
_ZNSt8__detail30__integer_to_chars_is_unsignedImEE:
	.byte	1
_ZNSt8__detail30__integer_to_chars_is_unsignedIyEE:
	.byte	1
	.ident	"GCC: (MinGW-W64 x86_64-msvcrt-posix-seh, built by Brecht Sanders) 13.1.0"
	.def	_ZNSolsEi;	.scl	2;	.type	32;	.endef
	.def	_ZStlsISt11char_traitsIcEERSt13basic_ostreamIcT_ES5_PKc;	.scl	2;	.type	32;	.endef
	.def	_ZNSt7__cxx1112basic_stringIcSt11char_traitsIcESaIcEEC1Ev;	.scl	2;	.type	32;	.endef
	.def	system;	.scl	2;	.type	32;	.endef
	.def	_ZStrsIcSt11char_traitsIcESaIcEERSt13basic_istreamIT_T0_ES7_RNSt7__cxx1112basic_stringIS4_S5_T1_EE;	.scl	2;	.type	32;	.endef
	.def	_ZNSt7__cxx1112basic_stringIcSt11char_traitsIcESaIcEED1Ev;	.scl	2;	.type	32;	.endef
	.def	_Unwind_Resume;	.scl	2;	.type	32;	.endef
	.section	.rdata$.refptr._ZSt3cin, "dr"
	.globl	.refptr._ZSt3cin
	.linkonce	discard
.refptr._ZSt3cin:
	.quad	_ZSt3cin
	.section	.rdata$.refptr._ZSt4cout, "dr"
	.globl	.refptr._ZSt4cout
	.linkonce	discard
.refptr._ZSt4cout:
	.quad	_ZSt4cout
